target datalayout = "e-m:e-p270:32:32-p271:32:32-p272:64:64-i64:64-i128:128-f80:128-n8:16:32:64-S128"
target triple = "x86_64-pc-linux-gnu"

%"class.doctest::String" = type { %union.anon }
%union.anon = type { %"struct.doctest::String::view", [8 x i8] }
%"struct.doctest::String::view" = type { ptr, i32, i32 }
%"struct.doctest::detail::Result" = type { i8, %"class.doctest::String" }
%"struct.doctest::detail::Expression_lhs" = type { i8, i32 }
%"struct.doctest::detail::ExpressionDecomposer" = type { i32 }

@.str.2 = private unnamed_addr constant [125 x i8] c"generated/home/dtcxzyw/WorkSpace/Projects/compilers/llvm-opt-benchmark/bench/nlohmann_json/json/tests/src/unit-windows_h.cpp\00", align 1
@.str.4 = private unnamed_addr constant [5 x i8] c"true\00", align 1

; Function Attrs: mustprogress nounwind uwtable
define linkonce_odr dso_local void @_ZN7doctest6detail14Expression_lhsIbEC2EObNS_10assertType4EnumE(ptr noundef nonnull align 4 dereferenceable(8) %0, ptr noundef nonnull align 1 dereferenceable(1) %1, i32 noundef %2) unnamed_addr #1 comdat align 2 {
  %4 = alloca ptr, align 8
  %5 = alloca ptr, align 8
  %6 = alloca i32, align 4
  store ptr %0, ptr %4, align 8, !tbaa !38
  store ptr %1, ptr %5, align 8, !tbaa !33
  store i32 %2, ptr %6, align 4, !tbaa !51
  %7 = load ptr, ptr %4, align 8
  %8 = getelementptr inbounds nuw %"struct.doctest::detail::Expression_lhs", ptr %7, i32 0, i32 0
  %9 = load ptr, ptr %5, align 8, !tbaa !33
  %10 = load i8, ptr %9, align 1, !tbaa !26, !range !42, !noundef !43
  %11 = trunc i8 %10 to i1
  %12 = zext i1 %11 to i8
  store i8 %12, ptr %8, align 4, !tbaa !40
  %13 = getelementptr inbounds nuw %"struct.doctest::detail::Expression_lhs", ptr %7, i32 0, i32 1
  %14 = load i32, ptr %6, align 4, !tbaa !51
  store i32 %14, ptr %13, align 4, !tbaa !44
  ret void
}

; Function Attrs: inlinehint mustprogress nounwind uwtable
define linkonce_odr dso_local void @_ZN7doctest6detail6ResultD2Ev(ptr noundef nonnull align 8 dereferenceable(32) %0) unnamed_addr #5 comdat align 2 {
  %2 = alloca ptr, align 8
  store ptr %0, ptr %2, align 8, !tbaa !49
  %3 = load ptr, ptr %2, align 8
  %4 = getelementptr inbounds nuw %"struct.doctest::detail::Result", ptr %3, i32 0, i32 1
  call void @_ZN7doctest6StringD1Ev(ptr noundef nonnull align 8 dereferenceable(24) %4) #9
  ret void
}

; Function Attrs: mustprogress uwtable
define linkonce_odr dso_local i64 @_ZN7doctest6detail20ExpressionDecomposerlsIbEENS0_14Expression_lhsIT_EEOS4_(ptr noundef nonnull align 4 dereferenceable(4) %0, ptr noundef nonnull align 1 dereferenceable(1) %1) #6 comdat align 2 {
  %3 = alloca %"struct.doctest::detail::Expression_lhs", align 4
  %4 = alloca ptr, align 8
  %5 = alloca ptr, align 8
  store ptr %0, ptr %4, align 8, !tbaa !31
  store ptr %1, ptr %5, align 8, !tbaa !33
  %6 = load ptr, ptr %4, align 8
  %7 = load ptr, ptr %5, align 8, !tbaa !33
  %8 = getelementptr inbounds nuw %"struct.doctest::detail::ExpressionDecomposer", ptr %6, i32 0, i32 0
  %9 = load i32, ptr %8, align 4, !tbaa !35
  call void @_ZN7doctest6detail14Expression_lhsIbEC2EObNS_10assertType4EnumE(ptr noundef nonnull align 4 dereferenceable(8) %3, ptr noundef nonnull align 1 dereferenceable(1) %7, i32 noundef %9)
  %10 = load i64, ptr %3, align 4
  ret i64 %10
}

; Function Attrs: mustprogress uwtable
define internal void @_ZL19DOCTEST_ANON_FUNC_2v() #6 personality ptr @__gxx_personality_v0 {
  %1 = alloca %"struct.doctest::detail::Result", align 8
  %2 = alloca %"struct.doctest::detail::Expression_lhs", align 4
  %3 = alloca %"struct.doctest::detail::ExpressionDecomposer", align 4
  %4 = alloca i8, align 1
  %5 = alloca ptr, align 8
  %6 = alloca i32, align 4
  call void @llvm.lifetime.start.p0(i64 32, ptr %1) #9
  call void @llvm.lifetime.start.p0(i64 8, ptr %2) #9
  call void @llvm.lifetime.start.p0(i64 4, ptr %3) #9
  call void @_ZN7doctest6detail20ExpressionDecomposerC1ENS_10assertType4EnumE(ptr noundef nonnull align 4 dereferenceable(4) %3, i32 noundef 10)
  call void @llvm.lifetime.start.p0(i64 1, ptr %4) #9
  store i8 1, ptr %4, align 1, !tbaa !26
  %7 = call i64 @_ZN7doctest6detail20ExpressionDecomposerlsIbEENS0_14Expression_lhsIT_EEOS4_(ptr noundef nonnull align 4 dereferenceable(4) %3, ptr noundef nonnull align 1 dereferenceable(1) %4)
  store i64 %7, ptr %2, align 4
  call void @_ZN7doctest6detail14Expression_lhsIbEcvNS0_6ResultEEv(ptr dead_on_unwind writable sret(%"struct.doctest::detail::Result") align 8 %1, ptr noundef nonnull align 4 dereferenceable(8) %2)
  %8 = invoke noundef zeroext i1 @_ZN7doctest6detail13decomp_assertENS_10assertType4EnumEPKciS4_RKNS0_6ResultE(i32 noundef 10, ptr noundef @.str.2, i32 noundef 22, ptr noundef @.str.4, ptr noundef nonnull align 8 dereferenceable(32) %1)
          to label %9 unwind label %10

9:                                                ; preds = %0
  call void @_ZN7doctest6detail6ResultD2Ev(ptr noundef nonnull align 8 dereferenceable(32) %1) #9
  call void @llvm.lifetime.end.p0(i64 1, ptr %4) #9
  call void @llvm.lifetime.end.p0(i64 4, ptr %3) #9
  call void @llvm.lifetime.end.p0(i64 8, ptr %2) #9
  call void @llvm.lifetime.end.p0(i64 32, ptr %1) #9
  ret void

10:                                               ; preds = %0
  %11 = landingpad { ptr, i32 }
          cleanup
  %12 = extractvalue { ptr, i32 } %11, 0
  store ptr %12, ptr %5, align 8
  %13 = extractvalue { ptr, i32 } %11, 1
  store i32 %13, ptr %6, align 4
  call void @_ZN7doctest6detail6ResultD2Ev(ptr noundef nonnull align 8 dereferenceable(32) %1) #9
  call void @llvm.lifetime.end.p0(i64 1, ptr %4) #9
  call void @llvm.lifetime.end.p0(i64 4, ptr %3) #9
  call void @llvm.lifetime.end.p0(i64 8, ptr %2) #9
  call void @llvm.lifetime.end.p0(i64 32, ptr %1) #9
  br label %14

14:                                               ; preds = %10
  %15 = load ptr, ptr %5, align 8
  %16 = load i32, ptr %6, align 4
  %17 = insertvalue { ptr, i32 } poison, ptr %15, 0
  %18 = insertvalue { ptr, i32 } %17, i32 %16, 1
  resume { ptr, i32 } %18
}