; Function Attrs: mustprogress uwtable
define internal void @_ZL19DOCTEST_ANON_FUNC_2v() #3 personality ptr @__gxx_personality_v0 {
  %1 = alloca %"struct.doctest::detail::Result", align 8
  %2 = alloca %"struct.doctest::detail::Expression_lhs", align 8
  %3 = alloca %"struct.doctest::detail::ExpressionDecomposer", align 4
  call void @llvm.lifetime.start.p0(i64 32, ptr nonnull %1) #8
  call void @llvm.lifetime.start.p0(i64 8, ptr nonnull %2) #8
  call void @llvm.lifetime.start.p0(i64 4, ptr nonnull %3) #8
  call void @_ZN7doctest6detail20ExpressionDecomposerC1ENS_10assertType4EnumE(ptr noundef nonnull align 4 dereferenceable(4) %3, i32 noundef 10)
  %4 = load i32, ptr %3, align 4, !tbaa !4
  %.sroa.22.0.insert.ext.i = zext i32 %4 to i64
  %.sroa.22.0.insert.shift.i = shl nuw i64 %.sroa.22.0.insert.ext.i, 32
  %.sroa.0.0.insert.insert.i = or disjoint i64 %.sroa.22.0.insert.shift.i, 1
  store i64 %.sroa.0.0.insert.insert.i, ptr %2, align 8
  call void @_ZN7doctest6detail14Expression_lhsIbEcvNS0_6ResultEEv(ptr dead_on_unwind nonnull writable sret(%"struct.doctest::detail::Result") align 8 %1, ptr noundef nonnull align 4 dereferenceable(8) %2)
  %5 = invoke noundef zeroext i1 @_ZN7doctest6detail13decomp_assertENS_10assertType4EnumEPKciS4_RKNS0_6ResultE(i32 noundef 10, ptr noundef nonnull @.str.2, i32 noundef 22, ptr noundef nonnull @.str.4, ptr noundef nonnull align 8 dereferenceable(32) %1)
          to label %6 unwind label %8

6:                                                ; preds = %0
  %7 = getelementptr inbounds nuw i8, ptr %1, i64 8
  call void @_ZN7doctest6StringD1Ev(ptr noundef nonnull align 8 dereferenceable(24) %7) #8
  call void @llvm.lifetime.end.p0(i64 4, ptr nonnull %3) #8
  call void @llvm.lifetime.end.p0(i64 8, ptr nonnull %2) #8
  call void @llvm.lifetime.end.p0(i64 32, ptr nonnull %1) #8
  ret void

8:                                                ; preds = %0
  %9 = landingpad { ptr, i32 }
          cleanup
  %10 = getelementptr inbounds nuw i8, ptr %1, i64 8
  call void @_ZN7doctest6StringD1Ev(ptr noundef nonnull align 8 dereferenceable(24) %10) #8
  call void @llvm.lifetime.end.p0(i64 4, ptr nonnull %3) #8
  call void @llvm.lifetime.end.p0(i64 8, ptr nonnull %2) #8
  call void @llvm.lifetime.end.p0(i64 32, ptr nonnull %1) #8
  resume { ptr, i32 } %9
}